target datalayout = "e-m:e-p270:32:32-p271:32:32-p272:64:64-i64:64-i128:128-f80:128-n8:16:32:64-S128"
target triple = "x86_64-unknown-linux-gnu"

%struct.tm = type { i32, i32, i32, i32, i32, i32, i32, i32, i32, i64, ptr }

; Function Attrs: mustprogress nounwind uwtable
define hidden noundef double @_ZN6hermes2vm8localTZAEv() #0 {
entry:
  %retval = alloca double, align 8
  %currentWithDST = alloca i64, align 8
  %local = alloca ptr, align 8
  %gmtoff = alloca i64, align 8
  call void @tzset() #7
  %call = call i64 @time(ptr noundef null) #7
  store i64 %call, ptr %currentWithDST, align 8
  %0 = load i64, ptr %currentWithDST, align 8
  %cmp = icmp eq i64 %0, -1
  br i1 %cmp, label %if.then, label %if.end

if.then:                                          ; preds = %entry
  store double 0.000000e+00, ptr %retval, align 8
  br label %return

if.end:                                           ; preds = %entry
  %call1 = call ptr @localtime(ptr noundef %currentWithDST) #7
  store ptr %call1, ptr %local, align 8
  %1 = load ptr, ptr %local, align 8
  %tobool = icmp ne ptr %1, null
  br i1 %tobool, label %if.end3, label %if.then2

if.then2:                                         ; preds = %if.end
  unreachable

if.end3:                                          ; preds = %if.end
  %2 = load ptr, ptr %local, align 8
  %tm_gmtoff = getelementptr inbounds %struct.tm, ptr %2, i32 0, i32 9
  %3 = load i64, ptr %tm_gmtoff, align 8
  store i64 %3, ptr %gmtoff, align 8
  %4 = load i64, ptr %gmtoff, align 8
  %conv = sitofp i64 %4 to double
  %5 = load ptr, ptr %local, align 8
  %tm_isdst = getelementptr inbounds %struct.tm, ptr %5, i32 0, i32 8
  %6 = load i32, ptr %tm_isdst, align 8
  %tobool4 = icmp ne i32 %6, 0
  %cond = select i1 %tobool4, double 3.600000e+06, double 0.000000e+00
  %neg = fneg double %cond
  %7 = call double @llvm.fmuladd.f64(double %conv, double 1.000000e+03, double %neg)
  store double %7, ptr %retval, align 8
  br label %return

return:                                           ; preds = %if.end3, %if.then
  %8 = load double, ptr %retval, align 8
  ret double %8
}