; Function Attrs: mustprogress nounwind uwtable
define hidden noundef double @_ZN6hermes2vm8localTZAEv() local_unnamed_addr #0 {
entry:
  %currentWithDST = alloca i64, align 8
  tail call void @tzset() #17
  %call = tail call i64 @time(ptr noundef null) #17
  store i64 %call, ptr %currentWithDST, align 8
  %cmp = icmp eq i64 %call, -1
  br i1 %cmp, label %return, label %if.end

if.end:                                           ; preds = %entry
  %call1 = call ptr @localtime(ptr noundef nonnull %currentWithDST) #17
  %tobool = icmp ne ptr %call1, null
  call void @llvm.assume(i1 %tobool)
  %tm_gmtoff = getelementptr inbounds i8, ptr %call1, i64 40
  %0 = load i64, ptr %tm_gmtoff, align 8
  %conv = sitofp i64 %0 to double
  %tm_isdst = getelementptr inbounds i8, ptr %call1, i64 32
  %1 = load i32, ptr %tm_isdst, align 8
  %tobool4.not = icmp eq i32 %1, 0
  %cond = select i1 %tobool4.not, double 0.000000e+00, double 3.600000e+06
  %neg = fneg double %cond
  %2 = call double @llvm.fmuladd.f64(double %conv, double 1.000000e+03, double %neg)
  br label %return

return:                                           ; preds = %entry, %if.end
  %retval.0 = phi double [ %2, %if.end ], [ 0.000000e+00, %entry ]
  ret double %retval.0
}